; Function Attrs: mustprogress nounwind uwtable
define noundef zeroext i1 @_ZN32pxrInternal_v0_24__pxrReserved__16TfIsRelativePathERKNSt7__cxx1112basic_stringIcSt11char_traitsIcESaIcEEE(ptr noundef nonnull align 8 dereferenceable(32) %0) local_unnamed_addr #6 {
  %2 = tail call noundef zeroext i1 @_ZNKSt7__cxx1112basic_stringIcSt11char_traitsIcESaIcEE5emptyEv(ptr noundef nonnull align 8 dereferenceable(32) %0) #18
  br i1 %2, label %7, label %3

3:                                                ; preds = %1
  %4 = tail call noundef nonnull align 1 dereferenceable(1) ptr @_ZNKSt7__cxx1112basic_stringIcSt11char_traitsIcESaIcEEixEm(ptr noundef nonnull align 8 dereferenceable(32) %0, i64 noundef 0) #18
  %5 = load i8, ptr %4, align 1
  %6 = icmp ne i8 %5, 47
  br label %7

7:                                                ; preds = %3, %1
  %8 = phi i1 [ true, %1 ], [ %6, %3 ]
  ret i1 %8
}